; Function Attrs: mustprogress sspstrong uwtable
define void @_ZN3tbb6detail2r122threading_control_impl17unregister_threadERNS1_11thread_dataE(ptr noundef nonnull readonly align 8 captures(none) dereferenceable(40) %0, ptr noundef nonnull readonly align 8 captures(none) dereferenceable(240) %1) local_unnamed_addr #0 align 2 personality ptr @__gxx_personality_v0 {
  %3 = alloca %"class.tbb::detail::d1::unique_scoped_lock", align 8
  %4 = getelementptr inbounds nuw i8, ptr %0, i64 24
  %5 = load ptr, ptr %4, align 8, !tbaa !67
  call void @llvm.lifetime.start.p0(i64 8, ptr nonnull %3) #16
  store ptr null, ptr %3, align 8, !tbaa !118
  call void @_ZN3tbb6detail2d118unique_scoped_lockINS1_5mutexEE7acquireERS3_(ptr noundef nonnull align 8 dereferenceable(8) %3, ptr noundef nonnull align 8 dereferenceable(32) %5)
  %6 = getelementptr inbounds nuw i8, ptr %5, i64 24
  %7 = load i64, ptr %6, align 8, !tbaa !123
  %8 = add i64 %7, -1
  store i64 %8, ptr %6, align 8, !tbaa !123
  %9 = load ptr, ptr %1, align 8, !tbaa !121
  %10 = getelementptr inbounds nuw i8, ptr %1, i64 8
  %11 = load ptr, ptr %10, align 8, !tbaa !122
  store ptr %9, ptr %11, align 8, !tbaa !121
  %12 = getelementptr inbounds nuw i8, ptr %9, i64 8
  store ptr %11, ptr %12, align 8, !tbaa !122
  %13 = load ptr, ptr %3, align 8, !tbaa !118
  %.not.i.i = icmp eq ptr %13, null
  br i1 %.not.i.i, label %_ZN3tbb6detail2r125cancellation_disseminator17unregister_threadERNS1_11thread_dataE.exit, label %14

14:                                               ; preds = %2
  %15 = atomicrmw xchg ptr %13, i8 0 seq_cst, align 1
  invoke void @_ZN3tbb6detail2r121notify_by_address_oneEPv(ptr noundef nonnull align 1 dereferenceable(1) %13)
          to label %_ZN3tbb6detail2r125cancellation_disseminator17unregister_threadERNS1_11thread_dataE.exit unwind label %16

16:                                               ; preds = %14
  %17 = landingpad { ptr, i32 }
          catch ptr null
  %18 = extractvalue { ptr, i32 } %17, 0
  call void @__clang_call_terminate(ptr %18) #22
  unreachable

_ZN3tbb6detail2r125cancellation_disseminator17unregister_threadERNS1_11thread_dataE.exit: ; preds = %2, %14
  call void @llvm.lifetime.end.p0(i64 8, ptr nonnull %3) #16
  ret void
}